
regulator_pomp.elf:     file format elf32-avr

Sections:
Idx Name          Size      VMA       LMA       File off  Algn
  0 .text         0000010e  00000000  00000000  00000074  2**1
                  CONTENTS, ALLOC, LOAD, READONLY, CODE
  1 .data         00000000  00800060  00800060  00000182  2**0
                  CONTENTS, ALLOC, LOAD, DATA
  2 .bss          00000002  00800060  00800060  00000182  2**0
                  ALLOC
  3 .comment      00000030  00000000  00000000  00000182  2**0
                  CONTENTS, READONLY
  4 .note.gnu.avr.deviceinfo 0000003c  00000000  00000000  000001b4  2**2
                  CONTENTS, READONLY

Disassembly of section .text:

00000000 <__vectors>:
   0:	0e c0       	rjmp	.+28     	; 0x1e <__ctors_end>
   2:	1b c0       	rjmp	.+54     	; 0x3a <__bad_interrupt>
   4:	1a c0       	rjmp	.+52     	; 0x3a <__bad_interrupt>
   6:	19 c0       	rjmp	.+50     	; 0x3a <__bad_interrupt>
   8:	18 c0       	rjmp	.+48     	; 0x3a <__bad_interrupt>
   a:	17 c0       	rjmp	.+46     	; 0x3a <__bad_interrupt>
   c:	16 c0       	rjmp	.+44     	; 0x3a <__bad_interrupt>
   e:	15 c0       	rjmp	.+42     	; 0x3a <__bad_interrupt>
  10:	15 c0       	rjmp	.+42     	; 0x3c <__vector_8>
  12:	13 c0       	rjmp	.+38     	; 0x3a <__bad_interrupt>
  14:	12 c0       	rjmp	.+36     	; 0x3a <__bad_interrupt>
  16:	11 c0       	rjmp	.+34     	; 0x3a <__bad_interrupt>
  18:	10 c0       	rjmp	.+32     	; 0x3a <__bad_interrupt>
  1a:	0f c0       	rjmp	.+30     	; 0x3a <__bad_interrupt>
  1c:	0e c0       	rjmp	.+28     	; 0x3a <__bad_interrupt>

0000001e <__ctors_end>:
  1e:	11 24       	eor	r1, r1
  20:	1f be       	out	0x3f, r1	; 63
  22:	cf ed       	ldi	r28, 0xDF	; 223
  24:	cd bf       	out	0x3d, r28	; 61

00000026 <__do_clear_bss>:
  26:	20 e0       	ldi	r18, 0x00	; 0
  28:	a0 e6       	ldi	r26, 0x60	; 96
  2a:	b0 e0       	ldi	r27, 0x00	; 0
  2c:	01 c0       	rjmp	.+2      	; 0x30 <.do_clear_bss_start>

0000002e <.do_clear_bss_loop>:
  2e:	1d 92       	st	X+, r1

00000030 <.do_clear_bss_start>:
  30:	a2 36       	cpi	r26, 0x62	; 98
  32:	b2 07       	cpc	r27, r18
  34:	e1 f7       	brne	.-8      	; 0x2e <.do_clear_bss_loop>
  36:	20 d0       	rcall	.+64     	; 0x78 <main>
  38:	68 c0       	rjmp	.+208    	; 0x10a <_exit>

0000003a <__bad_interrupt>:
  3a:	e2 cf       	rjmp	.-60     	; 0x0 <__vectors>

0000003c <__vector_8>:
  3c:	1f 92       	push	r1
  3e:	0f 92       	push	r0
  40:	0f b6       	in	r0, 0x3f	; 63
  42:	0f 92       	push	r0
  44:	11 24       	eor	r1, r1
  46:	8f 93       	push	r24
  48:	9f 93       	push	r25
  4a:	84 b1       	in	r24, 0x04	; 4
  4c:	95 b1       	in	r25, 0x05	; 5
  4e:	82 33       	cpi	r24, 0x32	; 50
  50:	91 05       	cpc	r25, r1
  52:	10 f4       	brcc	.+4      	; 0x58 <__SREG__+0x19>
  54:	82 e3       	ldi	r24, 0x32	; 50
  56:	90 e0       	ldi	r25, 0x00	; 0
  58:	90 93 61 00 	sts	0x0061, r25
  5c:	80 93 60 00 	sts	0x0060, r24
  60:	8a e1       	ldi	r24, 0x1A	; 26
  62:	8a 95       	dec	r24
  64:	f1 f7       	brne	.-4      	; 0x62 <__SREG__+0x23>
  66:	00 c0       	rjmp	.+0      	; 0x68 <__SREG__+0x29>
  68:	36 9a       	sbi	0x06, 6	; 6
  6a:	9f 91       	pop	r25
  6c:	8f 91       	pop	r24
  6e:	0f 90       	pop	r0
  70:	0f be       	out	0x3f, r0	; 63
  72:	0f 90       	pop	r0
  74:	1f 90       	pop	r1
  76:	18 95       	reti

00000078 <main>:
  78:	80 e8       	ldi	r24, 0x80	; 128
  7a:	86 bd       	out	0x26, r24	; 38
  7c:	16 bc       	out	0x26, r1	; 38
  7e:	18 ba       	out	0x18, r1	; 24
  80:	9b e3       	ldi	r25, 0x3B	; 59
  82:	97 bb       	out	0x17, r25	; 23
  84:	1a bc       	out	0x2a, r1	; 42
  86:	13 be       	out	0x33, r1	; 51
  88:	12 be       	out	0x32, r1	; 50
  8a:	19 bc       	out	0x29, r1	; 41
  8c:	18 bc       	out	0x28, r1	; 40
  8e:	17 bc       	out	0x27, r1	; 39
  90:	10 be       	out	0x30, r1	; 48
  92:	1c bc       	out	0x2c, r1	; 44
  94:	1f bc       	out	0x2f, r1	; 47
  96:	1e bc       	out	0x2e, r1	; 46
  98:	1b bc       	out	0x2b, r1	; 43
  9a:	1d bc       	out	0x2d, r1	; 45
  9c:	1b be       	out	0x3b, r1	; 59
  9e:	15 be       	out	0x35, r1	; 53
  a0:	19 be       	out	0x39, r1	; 57
  a2:	1d b8       	out	0x0d, r1	; 13
  a4:	88 b9       	out	0x08, r24	; 8
  a6:	13 b8       	out	0x03, r1	; 3
  a8:	14 ba       	out	0x14, r1	; 20
  aa:	84 b3       	in	r24, 0x14	; 20
  ac:	83 70       	andi	r24, 0x03	; 3
  ae:	84 bb       	out	0x14, r24	; 20
  b0:	84 b3       	in	r24, 0x14	; 20
  b2:	84 bb       	out	0x14, r24	; 20
  b4:	81 e0       	ldi	r24, 0x01	; 1
  b6:	87 b9       	out	0x07, r24	; 7
  b8:	8f ee       	ldi	r24, 0xEF	; 239
  ba:	86 b9       	out	0x06, r24	; 6
  bc:	83 b1       	in	r24, 0x03	; 3
  be:	88 75       	andi	r24, 0x58	; 88
  c0:	83 b9       	out	0x03, r24	; 3
  c2:	2f ef       	ldi	r18, 0xFF	; 255
  c4:	80 e7       	ldi	r24, 0x70	; 112
  c6:	92 e0       	ldi	r25, 0x02	; 2
  c8:	21 50       	subi	r18, 0x01	; 1
  ca:	80 40       	sbci	r24, 0x00	; 0
  cc:	90 40       	sbci	r25, 0x00	; 0
  ce:	e1 f7       	brne	.-8      	; 0xc8 <main+0x50>
  d0:	00 c0       	rjmp	.+0      	; 0xd2 <main+0x5a>
  d2:	00 00       	nop
  d4:	78 94       	sei
  d6:	c0 9a       	sbi	0x18, 0	; 24
  d8:	ef e7       	ldi	r30, 0x7F	; 127
  da:	f8 e3       	ldi	r31, 0x38	; 56
  dc:	21 e0       	ldi	r18, 0x01	; 1
  de:	e1 50       	subi	r30, 0x01	; 1
  e0:	f0 40       	sbci	r31, 0x00	; 0
  e2:	20 40       	sbci	r18, 0x00	; 0
  e4:	e1 f7       	brne	.-8      	; 0xde <main+0x66>
  e6:	00 c0       	rjmp	.+0      	; 0xe8 <__stack+0x9>
  e8:	00 00       	nop
  ea:	c0 98       	cbi	0x18, 0	; 24
  ec:	80 91 60 00 	lds	r24, 0x0060
  f0:	90 91 61 00 	lds	r25, 0x0061
  f4:	82 30       	cpi	r24, 0x02	; 2
  f6:	91 05       	cpc	r25, r1
  f8:	70 f3       	brcs	.-36     	; 0xd6 <main+0x5e>
  fa:	ef e9       	ldi	r30, 0x9F	; 159
  fc:	ff e0       	ldi	r31, 0x0F	; 15
  fe:	31 97       	sbiw	r30, 0x01	; 1
 100:	f1 f7       	brne	.-4      	; 0xfe <__stack+0x1f>
 102:	00 c0       	rjmp	.+0      	; 0x104 <__stack+0x25>
 104:	00 00       	nop
 106:	01 97       	sbiw	r24, 0x01	; 1
 108:	f5 cf       	rjmp	.-22     	; 0xf4 <__stack+0x15>

0000010a <_exit>:
 10a:	f8 94       	cli

0000010c <__stop_program>:
 10c:	ff cf       	rjmp	.-2      	; 0x10c <__stop_program>
